; Function Attrs: mustprogress nounwind uwtable
define internal noundef range(i32 -1, 1) i32 @_ZL4jcmdP15AttachOperationP12outputStream(ptr noundef %0, ptr noundef %1) #0 {
  %3 = tail call align 8 ptr @llvm.threadlocal.address.p0(ptr align 8 @_ZN6Thread12_thr_currentE)
  %4 = load ptr, ptr %3, align 8
  %5 = getelementptr inbounds i8, ptr %0, i64 25
  tail call void @_ZN4DCmd17parse_and_executeE10DCmdSourceP12outputStreamPKccP10JavaThread(i32 noundef 2, ptr noundef %1, ptr noundef nonnull %5, i8 noundef signext 32, ptr noundef %4) #8
  %6 = getelementptr inbounds i8, ptr %4, i64 8
  %7 = load ptr, ptr %6, align 8
  %.not = icmp eq ptr %7, null
  br i1 %.not, label %9, label %8

8:                                                ; preds = %2
  tail call void @_ZN19java_lang_Throwable5printEP7oopDescP12outputStream(ptr noundef nonnull %7, ptr noundef %1) #8
  tail call void @_ZN12outputStream2crEv(ptr noundef nonnull align 8 dereferenceable(56) %1) #8
  tail call void @_ZN12ThreadShadow23clear_pending_exceptionEv(ptr noundef nonnull align 8 dereferenceable(28) %4) #8
  br label %9

9:                                                ; preds = %2, %8
  %.0 = phi i32 [ -1, %8 ], [ 0, %2 ]
  ret i32 %.0
}